target datalayout = "e-m:e-p270:32:32-p271:32:32-p272:64:64-i64:64-i128:128-f80:128-n8:16:32:64-S128"
target triple = "x86_64-pc-linux-gnu"

%struct.Ivy_Obj_t_ = type { i32, i32, i32, i32, ptr, ptr, ptr, ptr, ptr, ptr, ptr, ptr }
%struct.Ivy_Man_t_ = type { ptr, ptr, ptr, ptr, ptr, %struct.Ivy_Obj_t_, [8 x i32], i32, i32, ptr, i32, i32, i32, i32, ptr, i32, ptr, ptr, ptr, i32, ptr, ptr, ptr, i64, i64 }
%struct.Vec_Ptr_t_ = type { i32, i32, ptr }

; Function Attrs: inlinehint nounwind uwtable
define internal i32 @Ivy_IsComplement(ptr noundef %0) #2 {
  %2 = alloca ptr, align 8
  store ptr %0, ptr %2, align 8, !tbaa !8
  %3 = load ptr, ptr %2, align 8, !tbaa !8
  %4 = ptrtoint ptr %3 to i64
  %5 = and i64 %4, 1
  %6 = trunc i64 %5 to i32
  ret i32 %6
}

; Function Attrs: inlinehint nounwind uwtable
define internal i32 @Ivy_ObjId(ptr noundef %0) #2 {
  %2 = alloca ptr, align 8
  store ptr %0, ptr %2, align 8, !tbaa !8
  %3 = load ptr, ptr %2, align 8, !tbaa !8
  %4 = getelementptr inbounds nuw %struct.Ivy_Obj_t_, ptr %3, i32 0, i32 0
  %5 = load i32, ptr %4, align 8, !tbaa !26
  ret i32 %5
}

; Function Attrs: inlinehint nounwind uwtable
define internal ptr @Vec_PtrEntry(ptr noundef %0, i32 noundef %1) #2 {
  %3 = alloca ptr, align 8
  %4 = alloca i32, align 4
  store ptr %0, ptr %3, align 8, !tbaa !34
  store i32 %1, ptr %4, align 4, !tbaa !19
  %5 = load ptr, ptr %3, align 8, !tbaa !34
  %6 = getelementptr inbounds nuw %struct.Vec_Ptr_t_, ptr %5, i32 0, i32 2
  %7 = load ptr, ptr %6, align 8, !tbaa !35
  %8 = load i32, ptr %4, align 4, !tbaa !19
  %9 = sext i32 %8 to i64
  %10 = getelementptr inbounds ptr, ptr %7, i64 %9
  %11 = load ptr, ptr %10, align 8, !tbaa !37
  ret ptr %11
}

; Function Attrs: inlinehint nounwind uwtable
define internal i32 @Ivy_ObjFaninC1(ptr noundef %0) #2 {
  %2 = alloca ptr, align 8
  store ptr %0, ptr %2, align 8, !tbaa !8
  %3 = load ptr, ptr %2, align 8, !tbaa !8
  %4 = getelementptr inbounds nuw %struct.Ivy_Obj_t_, ptr %3, i32 0, i32 5
  %5 = load ptr, ptr %4, align 8, !tbaa !24
  %6 = call i32 @Ivy_IsComplement(ptr noundef %5)
  ret i32 %6
}

; Function Attrs: inlinehint nounwind uwtable
define internal i32 @Ivy_ObjFaninC0(ptr noundef %0) #2 {
  %2 = alloca ptr, align 8
  store ptr %0, ptr %2, align 8, !tbaa !8
  %3 = load ptr, ptr %2, align 8, !tbaa !8
  %4 = getelementptr inbounds nuw %struct.Ivy_Obj_t_, ptr %3, i32 0, i32 4
  %5 = load ptr, ptr %4, align 8, !tbaa !23
  %6 = call i32 @Ivy_IsComplement(ptr noundef %5)
  ret i32 %6
}

; Function Attrs: inlinehint nounwind uwtable
define internal i32 @Ivy_ObjFaninId1(ptr noundef %0) #2 {
  %2 = alloca ptr, align 8
  store ptr %0, ptr %2, align 8, !tbaa !8
  %3 = load ptr, ptr %2, align 8, !tbaa !8
  %4 = getelementptr inbounds nuw %struct.Ivy_Obj_t_, ptr %3, i32 0, i32 5
  %5 = load ptr, ptr %4, align 8, !tbaa !24
  %6 = icmp ne ptr %5, null
  br i1 %6, label %7, label %13

7:                                                ; preds = %1
  %8 = load ptr, ptr %2, align 8, !tbaa !8
  %9 = getelementptr inbounds nuw %struct.Ivy_Obj_t_, ptr %8, i32 0, i32 5
  %10 = load ptr, ptr %9, align 8, !tbaa !24
  %11 = call ptr @Ivy_Regular(ptr noundef %10)
  %12 = call i32 @Ivy_ObjId(ptr noundef %11)
  br label %14

13:                                               ; preds = %1
  br label %14

14:                                               ; preds = %13, %7
  %15 = phi i32 [ %12, %7 ], [ 0, %13 ]
  ret i32 %15
}

; Function Attrs: inlinehint nounwind uwtable
define internal i32 @Ivy_ObjFaninId0(ptr noundef %0) #2 {
  %2 = alloca ptr, align 8
  store ptr %0, ptr %2, align 8, !tbaa !8
  %3 = load ptr, ptr %2, align 8, !tbaa !8
  %4 = getelementptr inbounds nuw %struct.Ivy_Obj_t_, ptr %3, i32 0, i32 4
  %5 = load ptr, ptr %4, align 8, !tbaa !23
  %6 = icmp ne ptr %5, null
  br i1 %6, label %7, label %13

7:                                                ; preds = %1
  %8 = load ptr, ptr %2, align 8, !tbaa !8
  %9 = getelementptr inbounds nuw %struct.Ivy_Obj_t_, ptr %8, i32 0, i32 4
  %10 = load ptr, ptr %9, align 8, !tbaa !23
  %11 = call ptr @Ivy_Regular(ptr noundef %10)
  %12 = call i32 @Ivy_ObjId(ptr noundef %11)
  br label %14

13:                                               ; preds = %1
  br label %14

14:                                               ; preds = %13, %7
  %15 = phi i32 [ %12, %7 ], [ 0, %13 ]
  ret i32 %15
}

; Function Attrs: inlinehint nounwind uwtable
define internal i32 @Ivy_ObjIsExor(ptr noundef %0) #2 {
  %2 = alloca ptr, align 8
  store ptr %0, ptr %2, align 8, !tbaa !8
  %3 = load ptr, ptr %2, align 8, !tbaa !8
  %4 = getelementptr inbounds nuw %struct.Ivy_Obj_t_, ptr %3, i32 0, i32 2
  %5 = load i32, ptr %4, align 8
  %6 = and i32 %5, 15
  %7 = icmp eq i32 %6, 6
  %8 = zext i1 %7 to i32
  ret i32 %8
}

; Function Attrs: inlinehint nounwind uwtable
define internal ptr @Ivy_Regular(ptr noundef %0) #2 {
  %2 = alloca ptr, align 8
  store ptr %0, ptr %2, align 8, !tbaa !8
  %3 = load ptr, ptr %2, align 8, !tbaa !8
  %4 = ptrtoint ptr %3 to i64
  %5 = and i64 %4, -2
  %6 = inttoptr i64 %5 to ptr
  ret ptr %6
}

; Function Attrs: inlinehint nounwind uwtable
define internal i32 @Ivy_ObjType(ptr noundef %0) #2 {
  %2 = alloca ptr, align 8
  store ptr %0, ptr %2, align 8, !tbaa !8
  %3 = load ptr, ptr %2, align 8, !tbaa !8
  %4 = getelementptr inbounds nuw %struct.Ivy_Obj_t_, ptr %3, i32 0, i32 2
  %5 = load i32, ptr %4, align 8
  %6 = and i32 %5, 15
  ret i32 %6
}

; Function Attrs: inlinehint nounwind uwtable
define internal i32 @Ivy_ObjInit(ptr noundef %0) #2 {
  %2 = alloca ptr, align 8
  store ptr %0, ptr %2, align 8, !tbaa !8
  %3 = load ptr, ptr %2, align 8, !tbaa !8
  %4 = getelementptr inbounds nuw %struct.Ivy_Obj_t_, ptr %3, i32 0, i32 2
  %5 = load i32, ptr %4, align 8
  %6 = lshr i32 %5, 9
  %7 = and i32 %6, 3
  ret i32 %7
}

; Function Attrs: inlinehint nounwind uwtable
define internal ptr @Ivy_ObjChild0(ptr noundef %0) #2 {
  %2 = alloca ptr, align 8
  store ptr %0, ptr %2, align 8, !tbaa !8
  %3 = load ptr, ptr %2, align 8, !tbaa !8
  %4 = getelementptr inbounds nuw %struct.Ivy_Obj_t_, ptr %3, i32 0, i32 4
  %5 = load ptr, ptr %4, align 8, !tbaa !23
  ret ptr %5
}

; Function Attrs: inlinehint nounwind uwtable
define internal ptr @Ivy_ManObj(ptr noundef %0, i32 noundef %1) #2 {
  %3 = alloca ptr, align 8
  %4 = alloca i32, align 4
  store ptr %0, ptr %3, align 8, !tbaa !3
  store i32 %1, ptr %4, align 4, !tbaa !19
  %5 = load ptr, ptr %3, align 8, !tbaa !3
  %6 = getelementptr inbounds nuw %struct.Ivy_Man_t_, ptr %5, i32 0, i32 3
  %7 = load ptr, ptr %6, align 8, !tbaa !25
  %8 = load i32, ptr %4, align 4, !tbaa !19
  %9 = call ptr @Vec_PtrEntry(ptr noundef %7, i32 noundef %8)
  ret ptr %9
}

; Function Attrs: nounwind uwtable
define internal i32 @Ivy_Hash(ptr noundef %0, i32 noundef %1) #0 {
  %3 = alloca ptr, align 8
  %4 = alloca i32, align 4
  %5 = alloca i32, align 4
  store ptr %0, ptr %3, align 8, !tbaa !8
  store i32 %1, ptr %4, align 4, !tbaa !19
  call void @llvm.lifetime.start.p0(i64 4, ptr %5) #7
  %6 = load ptr, ptr %3, align 8, !tbaa !8
  %7 = call i32 @Ivy_ObjIsExor(ptr noundef %6)
  %8 = mul nsw i32 %7, 1699
  store i32 %8, ptr %5, align 4, !tbaa !19
  %9 = load ptr, ptr %3, align 8, !tbaa !8
  %10 = call i32 @Ivy_ObjFaninId0(ptr noundef %9)
  %11 = mul nsw i32 %10, 7937
  %12 = load i32, ptr %5, align 4, !tbaa !19
  %13 = xor i32 %12, %11
  store i32 %13, ptr %5, align 4, !tbaa !19
  %14 = load ptr, ptr %3, align 8, !tbaa !8
  %15 = call i32 @Ivy_ObjFaninId1(ptr noundef %14)
  %16 = mul nsw i32 %15, 2971
  %17 = load i32, ptr %5, align 4, !tbaa !19
  %18 = xor i32 %17, %16
  store i32 %18, ptr %5, align 4, !tbaa !19
  %19 = load ptr, ptr %3, align 8, !tbaa !8
  %20 = call i32 @Ivy_ObjFaninC0(ptr noundef %19)
  %21 = mul nsw i32 %20, 911
  %22 = load i32, ptr %5, align 4, !tbaa !19
  %23 = xor i32 %22, %21
  store i32 %23, ptr %5, align 4, !tbaa !19
  %24 = load ptr, ptr %3, align 8, !tbaa !8
  %25 = call i32 @Ivy_ObjFaninC1(ptr noundef %24)
  %26 = mul nsw i32 %25, 353
  %27 = load i32, ptr %5, align 4, !tbaa !19
  %28 = xor i32 %27, %26
  store i32 %28, ptr %5, align 4, !tbaa !19
  %29 = load ptr, ptr %3, align 8, !tbaa !8
  %30 = call i32 @Ivy_ObjInit(ptr noundef %29)
  %31 = mul i32 %30, 911
  %32 = load i32, ptr %5, align 4, !tbaa !19
  %33 = xor i32 %32, %31
  store i32 %33, ptr %5, align 4, !tbaa !19
  %34 = load i32, ptr %5, align 4, !tbaa !19
  %35 = load i32, ptr %4, align 4, !tbaa !19
  %36 = urem i32 %34, %35
  call void @llvm.lifetime.end.p0(i64 4, ptr %5) #7
  ret i32 %36
}

; Function Attrs: inlinehint nounwind uwtable
define internal ptr @Ivy_ObjFanin1(ptr noundef %0) #2 {
  %2 = alloca ptr, align 8
  store ptr %0, ptr %2, align 8, !tbaa !8
  %3 = load ptr, ptr %2, align 8, !tbaa !8
  %4 = getelementptr inbounds nuw %struct.Ivy_Obj_t_, ptr %3, i32 0, i32 5
  %5 = load ptr, ptr %4, align 8, !tbaa !24
  %6 = call ptr @Ivy_Regular(ptr noundef %5)
  ret ptr %6
}

; Function Attrs: inlinehint nounwind uwtable
define internal ptr @Ivy_ObjChild1(ptr noundef %0) #2 {
  %2 = alloca ptr, align 8
  store ptr %0, ptr %2, align 8, !tbaa !8
  %3 = load ptr, ptr %2, align 8, !tbaa !8
  %4 = getelementptr inbounds nuw %struct.Ivy_Obj_t_, ptr %3, i32 0, i32 5
  %5 = load ptr, ptr %4, align 8, !tbaa !24
  ret ptr %5
}

; Function Attrs: inlinehint nounwind uwtable
define internal ptr @Ivy_ObjFanin0(ptr noundef %0) #2 {
  %2 = alloca ptr, align 8
  store ptr %0, ptr %2, align 8, !tbaa !8
  %3 = load ptr, ptr %2, align 8, !tbaa !8
  %4 = getelementptr inbounds nuw %struct.Ivy_Obj_t_, ptr %3, i32 0, i32 4
  %5 = load ptr, ptr %4, align 8, !tbaa !23
  %6 = call ptr @Ivy_Regular(ptr noundef %5)
  ret ptr %6
}

; Function Attrs: inlinehint nounwind uwtable
define internal i32 @Ivy_ObjIsHash(ptr noundef %0) #2 {
  %2 = alloca ptr, align 8
  store ptr %0, ptr %2, align 8, !tbaa !8
  %3 = load ptr, ptr %2, align 8, !tbaa !8
  %4 = getelementptr inbounds nuw %struct.Ivy_Obj_t_, ptr %3, i32 0, i32 2
  %5 = load i32, ptr %4, align 8
  %6 = and i32 %5, 15
  %7 = icmp eq i32 %6, 5
  br i1 %7, label %20, label %8

8:                                                ; preds = %1
  %9 = load ptr, ptr %2, align 8, !tbaa !8
  %10 = getelementptr inbounds nuw %struct.Ivy_Obj_t_, ptr %9, i32 0, i32 2
  %11 = load i32, ptr %10, align 8
  %12 = and i32 %11, 15
  %13 = icmp eq i32 %12, 6
  br i1 %13, label %20, label %14

14:                                               ; preds = %8
  %15 = load ptr, ptr %2, align 8, !tbaa !8
  %16 = getelementptr inbounds nuw %struct.Ivy_Obj_t_, ptr %15, i32 0, i32 2
  %17 = load i32, ptr %16, align 8
  %18 = and i32 %17, 15
  %19 = icmp eq i32 %18, 4
  br label %20

20:                                               ; preds = %14, %8, %1
  %21 = phi i1 [ true, %8 ], [ true, %1 ], [ %19, %14 ]
  %22 = zext i1 %21 to i32
  ret i32 %22
}

; Function Attrs: nounwind uwtable
define ptr @Ivy_TableLookup(ptr noundef %0, ptr noundef %1) #0 {
  %3 = alloca ptr, align 8
  %4 = alloca ptr, align 8
  %5 = alloca ptr, align 8
  %6 = alloca ptr, align 8
  %7 = alloca i32, align 4
  %8 = alloca i32, align 4
  store ptr %0, ptr %4, align 8, !tbaa !3
  store ptr %1, ptr %5, align 8, !tbaa !8
  call void @llvm.lifetime.start.p0(i64 8, ptr %6) #7
  call void @llvm.lifetime.start.p0(i64 4, ptr %7) #7
  %9 = load ptr, ptr %5, align 8, !tbaa !8
  %10 = call i32 @Ivy_ObjIsHash(ptr noundef %9)
  %11 = icmp ne i32 %10, 0
  br i1 %11, label %13, label %12

12:                                               ; preds = %2
  store ptr null, ptr %3, align 8
  store i32 1, ptr %8, align 4
  br label %89

13:                                               ; preds = %2
  %14 = load ptr, ptr %5, align 8, !tbaa !8
  %15 = call ptr @Ivy_ObjFanin0(ptr noundef %14)
  %16 = getelementptr inbounds nuw %struct.Ivy_Obj_t_, ptr %15, i32 0, i32 3
  %17 = load i32, ptr %16, align 4, !tbaa !10
  %18 = icmp eq i32 %17, 0
  br i1 %18, label %29, label %19

19:                                               ; preds = %13
  %20 = load ptr, ptr %5, align 8, !tbaa !8
  %21 = call ptr @Ivy_ObjChild1(ptr noundef %20)
  %22 = icmp ne ptr %21, null
  br i1 %22, label %23, label %30

23:                                               ; preds = %19
  %24 = load ptr, ptr %5, align 8, !tbaa !8
  %25 = call ptr @Ivy_ObjFanin1(ptr noundef %24)
  %26 = getelementptr inbounds nuw %struct.Ivy_Obj_t_, ptr %25, i32 0, i32 3
  %27 = load i32, ptr %26, align 4, !tbaa !10
  %28 = icmp eq i32 %27, 0
  br i1 %28, label %29, label %30

29:                                               ; preds = %23, %13
  store ptr null, ptr %3, align 8
  store i32 1, ptr %8, align 4
  br label %89

30:                                               ; preds = %23, %19
  %31 = load ptr, ptr %5, align 8, !tbaa !8
  %32 = load ptr, ptr %4, align 8, !tbaa !3
  %33 = getelementptr inbounds nuw %struct.Ivy_Man_t_, ptr %32, i32 0, i32 10
  %34 = load i32, ptr %33, align 8, !tbaa !13
  %35 = call i32 @Ivy_Hash(ptr noundef %31, i32 noundef %34)
  store i32 %35, ptr %7, align 4, !tbaa !19
  br label %36

36:                                               ; preds = %81, %30
  %37 = load ptr, ptr %4, align 8, !tbaa !3
  %38 = getelementptr inbounds nuw %struct.Ivy_Man_t_, ptr %37, i32 0, i32 9
  %39 = load ptr, ptr %38, align 8, !tbaa !20
  %40 = load i32, ptr %7, align 4, !tbaa !19
  %41 = sext i32 %40 to i64
  %42 = getelementptr inbounds i32, ptr %39, i64 %41
  %43 = load i32, ptr %42, align 4, !tbaa !19
  %44 = icmp ne i32 %43, 0
  br i1 %44, label %45, label %88

45:                                               ; preds = %36
  %46 = load ptr, ptr %4, align 8, !tbaa !3
  %47 = load ptr, ptr %4, align 8, !tbaa !3
  %48 = getelementptr inbounds nuw %struct.Ivy_Man_t_, ptr %47, i32 0, i32 9
  %49 = load ptr, ptr %48, align 8, !tbaa !20
  %50 = load i32, ptr %7, align 4, !tbaa !19
  %51 = sext i32 %50 to i64
  %52 = getelementptr inbounds i32, ptr %49, i64 %51
  %53 = load i32, ptr %52, align 4, !tbaa !19
  %54 = call ptr @Ivy_ManObj(ptr noundef %46, i32 noundef %53)
  store ptr %54, ptr %6, align 8, !tbaa !8
  %55 = load ptr, ptr %6, align 8, !tbaa !8
  %56 = call ptr @Ivy_ObjChild0(ptr noundef %55)
  %57 = load ptr, ptr %5, align 8, !tbaa !8
  %58 = call ptr @Ivy_ObjChild0(ptr noundef %57)
  %59 = icmp eq ptr %56, %58
  br i1 %59, label %60, label %80

60:                                               ; preds = %45
  %61 = load ptr, ptr %6, align 8, !tbaa !8
  %62 = call ptr @Ivy_ObjChild1(ptr noundef %61)
  %63 = load ptr, ptr %5, align 8, !tbaa !8
  %64 = call ptr @Ivy_ObjChild1(ptr noundef %63)
  %65 = icmp eq ptr %62, %64
  br i1 %65, label %66, label %80

66:                                               ; preds = %60
  %67 = load ptr, ptr %6, align 8, !tbaa !8
  %68 = call i32 @Ivy_ObjInit(ptr noundef %67)
  %69 = load ptr, ptr %5, align 8, !tbaa !8
  %70 = call i32 @Ivy_ObjInit(ptr noundef %69)
  %71 = icmp eq i32 %68, %70
  br i1 %71, label %72, label %80

72:                                               ; preds = %66
  %73 = load ptr, ptr %6, align 8, !tbaa !8
  %74 = call i32 @Ivy_ObjType(ptr noundef %73)
  %75 = load ptr, ptr %5, align 8, !tbaa !8
  %76 = call i32 @Ivy_ObjType(ptr noundef %75)
  %77 = icmp eq i32 %74, %76
  br i1 %77, label %78, label %80

78:                                               ; preds = %72
  %79 = load ptr, ptr %6, align 8, !tbaa !8
  store ptr %79, ptr %3, align 8
  store i32 1, ptr %8, align 4
  br label %89

80:                                               ; preds = %72, %66, %60, %45
  br label %81

81:                                               ; preds = %80
  %82 = load i32, ptr %7, align 4, !tbaa !19
  %83 = add nsw i32 %82, 1
  %84 = load ptr, ptr %4, align 8, !tbaa !3
  %85 = getelementptr inbounds nuw %struct.Ivy_Man_t_, ptr %84, i32 0, i32 10
  %86 = load i32, ptr %85, align 8, !tbaa !13
  %87 = srem i32 %83, %86
  store i32 %87, ptr %7, align 4, !tbaa !19
  br label %36, !llvm.loop !21

88:                                               ; preds = %36
  store ptr null, ptr %3, align 8
  store i32 1, ptr %8, align 4
  br label %89

89:                                               ; preds = %88, %78, %29, %12
  call void @llvm.lifetime.end.p0(i64 4, ptr %7) #7
  call void @llvm.lifetime.end.p0(i64 8, ptr %6) #7
  %90 = load ptr, ptr %3, align 8
  ret ptr %90
}