; Function Attrs: nofree norecurse nosync nounwind memory(read, inaccessiblemem: none) uwtable
define ptr @Ivy_TableLookup(ptr noundef readonly captures(none) %0, ptr noundef readonly captures(none) %1) local_unnamed_addr #0 {
  %3 = getelementptr i8, ptr %1, i64 8
  %.val = load i32, ptr %3, align 8
  %4 = and i32 %.val, 15
  %5 = add nsw i32 %4, -7
  %narrow.i = icmp ult i32 %5, -3
  br i1 %narrow.i, label %.loopexit, label %6

6:                                                ; preds = %2
  %7 = getelementptr i8, ptr %1, i64 16
  %.val26 = load ptr, ptr %7, align 8, !tbaa !3
  %8 = ptrtoint ptr %.val26 to i64
  %9 = and i64 %8, -2
  %10 = inttoptr i64 %9 to ptr
  %11 = getelementptr inbounds nuw i8, ptr %10, i64 12
  %12 = load i32, ptr %11, align 4, !tbaa !10
  %13 = icmp eq i32 %12, 0
  br i1 %13, label %.loopexit, label %14

14:                                               ; preds = %6
  %15 = getelementptr i8, ptr %1, i64 24
  %.val27 = load ptr, ptr %15, align 8, !tbaa !11
  %.not24 = icmp eq ptr %.val27, null
  br i1 %.not24, label %23, label %16

16:                                               ; preds = %14
  %17 = ptrtoint ptr %.val27 to i64
  %18 = and i64 %17, -2
  %19 = inttoptr i64 %18 to ptr
  %20 = getelementptr inbounds nuw i8, ptr %19, i64 12
  %21 = load i32, ptr %20, align 4, !tbaa !10
  %22 = icmp eq i32 %21, 0
  br i1 %22, label %.loopexit, label %23

23:                                               ; preds = %16, %14
  %24 = getelementptr inbounds nuw i8, ptr %0, i64 168
  %25 = load i32, ptr %24, align 8, !tbaa !12
  %.not.i.i = icmp eq ptr %.val26, null
  br i1 %.not.i.i, label %Ivy_ObjFaninId0.exit.i, label %26

26:                                               ; preds = %23
  %.val.i.i = load i32, ptr %10, align 8, !tbaa !19
  %27 = mul nsw i32 %.val.i.i, 7937
  br label %Ivy_ObjFaninId0.exit.i

Ivy_ObjFaninId0.exit.i:                           ; preds = %26, %23
  %28 = phi i32 [ %27, %26 ], [ 0, %23 ]
  %.pre.i = ptrtoint ptr %.val27 to i64
  br i1 %.not24, label %Ivy_Hash.exit, label %29

29:                                               ; preds = %Ivy_ObjFaninId0.exit.i
  %30 = and i64 %.pre.i, -2
  %31 = inttoptr i64 %30 to ptr
  %.val.i18.i = load i32, ptr %31, align 8, !tbaa !19
  %32 = mul nsw i32 %.val.i18.i, 2971
  br label %Ivy_Hash.exit

Ivy_Hash.exit:                                    ; preds = %Ivy_ObjFaninId0.exit.i, %29
  %33 = phi i32 [ %32, %29 ], [ 0, %Ivy_ObjFaninId0.exit.i ]
  %34 = icmp eq i32 %4, 6
  %35 = select i1 %34, i32 1699, i32 0
  %36 = trunc i64 %8 to i1
  %37 = select i1 %36, i32 911, i32 0
  %38 = trunc i64 %.pre.i to i1
  %39 = select i1 %38, i32 353, i32 0
  %40 = lshr i32 %.val, 9
  %41 = and i32 %40, 3
  %42 = mul nuw nsw i32 %41, 911
  %43 = xor i32 %42, %35
  %44 = xor i32 %43, %37
  %45 = xor i32 %44, %39
  %46 = xor i32 %45, %28
  %47 = xor i32 %46, %33
  %48 = urem i32 %47, %25
  %49 = getelementptr inbounds nuw i8, ptr %0, i64 160
  %50 = load ptr, ptr %49, align 8, !tbaa !20
  %51 = sext i32 %48 to i64
  %52 = getelementptr inbounds i32, ptr %50, i64 %51
  %53 = load i32, ptr %52, align 4, !tbaa !21
  %.not2539 = icmp eq i32 %53, 0
  br i1 %.not2539, label %.loopexit, label %.lr.ph

.lr.ph:                                           ; preds = %Ivy_Hash.exit
  %54 = getelementptr i8, ptr %0, i64 24
  %.val33 = load ptr, ptr %54, align 8, !tbaa !22
  %55 = getelementptr i8, ptr %.val33, i64 8
  %.val33.val = load ptr, ptr %55, align 8, !tbaa !23
  br label %56

56:                                               ; preds = %.lr.ph, %73
  %57 = phi i32 [ %53, %.lr.ph ], [ %78, %73 ]
  %.040 = phi i32 [ %48, %.lr.ph ], [ %75, %73 ]
  %58 = sext i32 %57 to i64
  %59 = getelementptr inbounds ptr, ptr %.val33.val, i64 %58
  %60 = load ptr, ptr %59, align 8, !tbaa !25
  %61 = getelementptr i8, ptr %60, i64 16
  %.val34 = load ptr, ptr %61, align 8, !tbaa !3
  %62 = icmp eq ptr %.val34, %.val26
  br i1 %62, label %63, label %73

63:                                               ; preds = %56
  %64 = getelementptr i8, ptr %60, i64 24
  %.val28 = load ptr, ptr %64, align 8, !tbaa !11
  %65 = icmp eq ptr %.val28, %.val27
  br i1 %65, label %66, label %73

66:                                               ; preds = %63
  %67 = getelementptr i8, ptr %60, i64 8
  %.val31 = load i32, ptr %67, align 8
  %68 = lshr i32 %.val31, 9
  %69 = and i32 %68, 3
  %70 = icmp eq i32 %69, %41
  %71 = and i32 %.val31, 15
  %72 = icmp eq i32 %71, %4
  %or.cond = and i1 %72, %70
  br i1 %or.cond, label %.loopexit, label %73

73:                                               ; preds = %56, %63, %66
  %74 = add nsw i32 %.040, 1
  %75 = srem i32 %74, %25
  %76 = sext i32 %75 to i64
  %77 = getelementptr inbounds i32, ptr %50, i64 %76
  %78 = load i32, ptr %77, align 4, !tbaa !21
  %.not25 = icmp eq i32 %78, 0
  br i1 %.not25, label %.loopexit, label %56, !llvm.loop !26

.loopexit:                                        ; preds = %73, %66, %Ivy_Hash.exit, %6, %16, %2
  %.022 = phi ptr [ null, %2 ], [ null, %16 ], [ null, %6 ], [ null, %Ivy_Hash.exit ], [ null, %73 ], [ %60, %66 ]
  ret ptr %.022
}